target datalayout = "e-m:e-p270:32:32-p271:32:32-p272:64:64-i64:64-i128:128-f80:128-n8:16:32:64-S128"
target triple = "x86_64-pc-linux-gnu"

%struct.re_pattern_buffer = type { ptr, ptr, ptr, i32, i32, ptr, ptr, i32, i32, i32, i32, i32, i32, i32, i32, i32, ptr, ptr, i32, ptr, i32, ptr, i32, i32, i32, i32, i32, i32, ptr, ptr, [256 x i8], i32, i32, i32, ptr }
%struct.ParseEnv = type { i32, i32, ptr, ptr, i32, i32, i32, ptr, ptr, ptr, ptr, ptr, i32, i32, i32, i32, [8 x %struct.MemEnv], ptr, i32, i32, i32, i32, ptr, ptr, i32, i32 }
%struct.MemEnv = type { ptr, ptr }
%struct.GroupNumMap = type { i32 }

; Function Attrs: nounwind uwtable
define internal i32 @disable_noname_group_capture(ptr noundef %0, ptr noundef %1, ptr noundef %2) #0 {
  %4 = alloca i32, align 4
  %5 = alloca ptr, align 8
  %6 = alloca ptr, align 8
  %7 = alloca ptr, align 8
  %8 = alloca i32, align 4
  %9 = alloca i32, align 4
  %10 = alloca i32, align 4
  %11 = alloca i32, align 4
  %12 = alloca i32, align 4
  %13 = alloca ptr, align 8
  %14 = alloca i32, align 4
  store ptr %0, ptr %5, align 8, !tbaa !58
  store ptr %1, ptr %6, align 8, !tbaa !8
  store ptr %2, ptr %7, align 8, !tbaa !15
  call void @llvm.lifetime.start.p0(i64 4, ptr %8) #9
  call void @llvm.lifetime.start.p0(i64 4, ptr %9) #9
  call void @llvm.lifetime.start.p0(i64 4, ptr %10) #9
  call void @llvm.lifetime.start.p0(i64 4, ptr %11) #9
  call void @llvm.lifetime.start.p0(i64 4, ptr %12) #9
  call void @llvm.lifetime.start.p0(i64 8, ptr %13) #9
  %15 = load ptr, ptr %7, align 8, !tbaa !15
  %16 = getelementptr inbounds nuw %struct.ParseEnv, ptr %15, i32 0, i32 13
  %17 = load i32, ptr %16, align 4, !tbaa !67
  %18 = add nsw i32 %17, 1
  %19 = sext i32 %18 to i64
  %20 = mul i64 4, %19
  %21 = alloca i8, i64 %20, align 16
  store ptr %21, ptr %13, align 8, !tbaa !15
  %22 = load ptr, ptr %13, align 8, !tbaa !15
  %23 = icmp eq ptr %22, null
  br i1 %23, label %24, label %25

24:                                               ; preds = %3
  store i32 -5, ptr %4, align 4
  store i32 1, ptr %14, align 4
  br label %178

25:                                               ; preds = %3
  store i32 1, ptr %9, align 4, !tbaa !4
  br label %26

26:                                               ; preds = %38, %25
  %27 = load i32, ptr %9, align 4, !tbaa !4
  %28 = load ptr, ptr %7, align 8, !tbaa !15
  %29 = getelementptr inbounds nuw %struct.ParseEnv, ptr %28, i32 0, i32 13
  %30 = load i32, ptr %29, align 4, !tbaa !67
  %31 = icmp sle i32 %27, %30
  br i1 %31, label %32, label %41

32:                                               ; preds = %26
  %33 = load ptr, ptr %13, align 8, !tbaa !15
  %34 = load i32, ptr %9, align 4, !tbaa !4
  %35 = sext i32 %34 to i64
  %36 = getelementptr inbounds %struct.GroupNumMap, ptr %33, i64 %35
  %37 = getelementptr inbounds nuw %struct.GroupNumMap, ptr %36, i32 0, i32 0
  store i32 0, ptr %37, align 4, !tbaa !168
  br label %38

38:                                               ; preds = %32
  %39 = load i32, ptr %9, align 4, !tbaa !4
  %40 = add nsw i32 %39, 1
  store i32 %40, ptr %9, align 4, !tbaa !4
  br label %26, !llvm.loop !170

41:                                               ; preds = %26
  store i32 0, ptr %11, align 4, !tbaa !4
  %42 = load ptr, ptr %5, align 8, !tbaa !58
  %43 = load ptr, ptr %13, align 8, !tbaa !15
  %44 = call i32 @make_named_capture_number_map(ptr noundef %42, ptr noundef %43, ptr noundef %11)
  store i32 %44, ptr %8, align 4, !tbaa !4
  %45 = load i32, ptr %8, align 4, !tbaa !4
  %46 = icmp slt i32 %45, 0
  br i1 %46, label %47, label %49

47:                                               ; preds = %41
  %48 = load i32, ptr %8, align 4, !tbaa !4
  store i32 %48, ptr %4, align 4
  store i32 1, ptr %14, align 4
  br label %178

49:                                               ; preds = %41
  %50 = load ptr, ptr %5, align 8, !tbaa !58
  %51 = load ptr, ptr %50, align 8, !tbaa !47
  %52 = load ptr, ptr %13, align 8, !tbaa !15
  %53 = call i32 @renumber_backref_traverse(ptr noundef %51, ptr noundef %52)
  store i32 %53, ptr %8, align 4, !tbaa !4
  %54 = load i32, ptr %8, align 4, !tbaa !4
  %55 = icmp ne i32 %54, 0
  br i1 %55, label %56, label %58

56:                                               ; preds = %49
  %57 = load i32, ptr %8, align 4, !tbaa !4
  store i32 %57, ptr %4, align 4
  store i32 1, ptr %14, align 4
  br label %178

58:                                               ; preds = %49
  store i32 1, ptr %9, align 4, !tbaa !4
  store i32 1, ptr %10, align 4, !tbaa !4
  br label %59

59:                                               ; preds = %111, %58
  %60 = load i32, ptr %9, align 4, !tbaa !4
  %61 = load ptr, ptr %7, align 8, !tbaa !15
  %62 = getelementptr inbounds nuw %struct.ParseEnv, ptr %61, i32 0, i32 13
  %63 = load i32, ptr %62, align 4, !tbaa !67
  %64 = icmp sle i32 %60, %63
  br i1 %64, label %65, label %114

65:                                               ; preds = %59
  %66 = load ptr, ptr %13, align 8, !tbaa !15
  %67 = load i32, ptr %9, align 4, !tbaa !4
  %68 = sext i32 %67 to i64
  %69 = getelementptr inbounds %struct.GroupNumMap, ptr %66, i64 %68
  %70 = getelementptr inbounds nuw %struct.GroupNumMap, ptr %69, i32 0, i32 0
  %71 = load i32, ptr %70, align 4, !tbaa !168
  %72 = icmp sgt i32 %71, 0
  br i1 %72, label %73, label %110

73:                                               ; preds = %65
  %74 = load ptr, ptr %7, align 8, !tbaa !15
  %75 = getelementptr inbounds nuw %struct.ParseEnv, ptr %74, i32 0, i32 17
  %76 = load ptr, ptr %75, align 8, !tbaa !50
  %77 = icmp ne ptr %76, null
  br i1 %77, label %78, label %82

78:                                               ; preds = %73
  %79 = load ptr, ptr %7, align 8, !tbaa !15
  %80 = getelementptr inbounds nuw %struct.ParseEnv, ptr %79, i32 0, i32 17
  %81 = load ptr, ptr %80, align 8, !tbaa !50
  br label %86

82:                                               ; preds = %73
  %83 = load ptr, ptr %7, align 8, !tbaa !15
  %84 = getelementptr inbounds nuw %struct.ParseEnv, ptr %83, i32 0, i32 16
  %85 = getelementptr inbounds [8 x %struct.MemEnv], ptr %84, i64 0, i64 0
  br label %86

86:                                               ; preds = %82, %78
  %87 = phi ptr [ %81, %78 ], [ %85, %82 ]
  %88 = load i32, ptr %10, align 4, !tbaa !4
  %89 = sext i32 %88 to i64
  %90 = getelementptr inbounds %struct.MemEnv, ptr %87, i64 %89
  %91 = load ptr, ptr %7, align 8, !tbaa !15
  %92 = getelementptr inbounds nuw %struct.ParseEnv, ptr %91, i32 0, i32 17
  %93 = load ptr, ptr %92, align 8, !tbaa !50
  %94 = icmp ne ptr %93, null
  br i1 %94, label %95, label %99

95:                                               ; preds = %86
  %96 = load ptr, ptr %7, align 8, !tbaa !15
  %97 = getelementptr inbounds nuw %struct.ParseEnv, ptr %96, i32 0, i32 17
  %98 = load ptr, ptr %97, align 8, !tbaa !50
  br label %103

99:                                               ; preds = %86
  %100 = load ptr, ptr %7, align 8, !tbaa !15
  %101 = getelementptr inbounds nuw %struct.ParseEnv, ptr %100, i32 0, i32 16
  %102 = getelementptr inbounds [8 x %struct.MemEnv], ptr %101, i64 0, i64 0
  br label %103

103:                                              ; preds = %99, %95
  %104 = phi ptr [ %98, %95 ], [ %102, %99 ]
  %105 = load i32, ptr %9, align 4, !tbaa !4
  %106 = sext i32 %105 to i64
  %107 = getelementptr inbounds %struct.MemEnv, ptr %104, i64 %106
  call void @llvm.memcpy.p0.p0.i64(ptr align 8 %90, ptr align 8 %107, i64 16, i1 false), !tbaa.struct !171
  %108 = load i32, ptr %10, align 4, !tbaa !4
  %109 = add nsw i32 %108, 1
  store i32 %109, ptr %10, align 4, !tbaa !4
  br label %110

110:                                              ; preds = %103, %65
  br label %111

111:                                              ; preds = %110
  %112 = load i32, ptr %9, align 4, !tbaa !4
  %113 = add nsw i32 %112, 1
  store i32 %113, ptr %9, align 4, !tbaa !4
  br label %59, !llvm.loop !172

114:                                              ; preds = %59
  %115 = load ptr, ptr %7, align 8, !tbaa !15
  %116 = getelementptr inbounds nuw %struct.ParseEnv, ptr %115, i32 0, i32 4
  %117 = load i32, ptr %116, align 8, !tbaa !40
  store i32 %117, ptr %12, align 4, !tbaa !4
  %118 = load ptr, ptr %7, align 8, !tbaa !15
  %119 = getelementptr inbounds nuw %struct.ParseEnv, ptr %118, i32 0, i32 4
  store i32 0, ptr %119, align 8, !tbaa !40
  store i32 1, ptr %9, align 4, !tbaa !4
  br label %120

120:                                              ; preds = %161, %114
  %121 = load i32, ptr %9, align 4, !tbaa !4
  %122 = icmp sle i32 %121, 31
  br i1 %122, label %123, label %164

123:                                              ; preds = %120
  %124 = load i32, ptr %9, align 4, !tbaa !4
  %125 = icmp slt i32 %124, 32
  br i1 %125, label %126, label %132

126:                                              ; preds = %123
  %127 = load i32, ptr %12, align 4, !tbaa !4
  %128 = load i32, ptr %9, align 4, !tbaa !4
  %129 = shl i32 1, %128
  %130 = and i32 %127, %129
  %131 = icmp ne i32 %130, 0
  br i1 %131, label %136, label %160

132:                                              ; preds = %123
  %133 = load i32, ptr %12, align 4, !tbaa !4
  %134 = and i32 %133, 1
  %135 = icmp ne i32 %134, 0
  br i1 %135, label %136, label %160

136:                                              ; preds = %132, %126
  br label %137

137:                                              ; preds = %136
  %138 = load ptr, ptr %13, align 8, !tbaa !15
  %139 = load i32, ptr %9, align 4, !tbaa !4
  %140 = sext i32 %139 to i64
  %141 = getelementptr inbounds %struct.GroupNumMap, ptr %138, i64 %140
  %142 = getelementptr inbounds nuw %struct.GroupNumMap, ptr %141, i32 0, i32 0
  %143 = load i32, ptr %142, align 4, !tbaa !168
  %144 = icmp slt i32 %143, 32
  br i1 %144, label %145, label %157

145:                                              ; preds = %137
  %146 = load ptr, ptr %13, align 8, !tbaa !15
  %147 = load i32, ptr %9, align 4, !tbaa !4
  %148 = sext i32 %147 to i64
  %149 = getelementptr inbounds %struct.GroupNumMap, ptr %146, i64 %148
  %150 = getelementptr inbounds nuw %struct.GroupNumMap, ptr %149, i32 0, i32 0
  %151 = load i32, ptr %150, align 4, !tbaa !168
  %152 = shl i32 1, %151
  %153 = load ptr, ptr %7, align 8, !tbaa !15
  %154 = getelementptr inbounds nuw %struct.ParseEnv, ptr %153, i32 0, i32 4
  %155 = load i32, ptr %154, align 8, !tbaa !40
  %156 = or i32 %155, %152
  store i32 %156, ptr %154, align 8, !tbaa !40
  br label %157

157:                                              ; preds = %145, %137
  br label %158

158:                                              ; preds = %157
  br label %159

159:                                              ; preds = %158
  br label %160

160:                                              ; preds = %159, %132, %126
  br label %161

161:                                              ; preds = %160
  %162 = load i32, ptr %9, align 4, !tbaa !4
  %163 = add nsw i32 %162, 1
  store i32 %163, ptr %9, align 4, !tbaa !4
  br label %120, !llvm.loop !173

164:                                              ; preds = %120
  %165 = load ptr, ptr %7, align 8, !tbaa !15
  %166 = getelementptr inbounds nuw %struct.ParseEnv, ptr %165, i32 0, i32 14
  %167 = load i32, ptr %166, align 8, !tbaa !61
  %168 = load ptr, ptr %7, align 8, !tbaa !15
  %169 = getelementptr inbounds nuw %struct.ParseEnv, ptr %168, i32 0, i32 13
  store i32 %167, ptr %169, align 4, !tbaa !67
  %170 = load ptr, ptr %7, align 8, !tbaa !15
  %171 = getelementptr inbounds nuw %struct.ParseEnv, ptr %170, i32 0, i32 14
  %172 = load i32, ptr %171, align 8, !tbaa !61
  %173 = load ptr, ptr %6, align 8, !tbaa !8
  %174 = getelementptr inbounds nuw %struct.re_pattern_buffer, ptr %173, i32 0, i32 7
  store i32 %172, ptr %174, align 8, !tbaa !174
  %175 = load ptr, ptr %6, align 8, !tbaa !8
  %176 = load ptr, ptr %13, align 8, !tbaa !15
  %177 = call i32 @onig_renumber_name_table(ptr noundef %175, ptr noundef %176)
  store i32 %177, ptr %4, align 4
  store i32 1, ptr %14, align 4
  br label %178

178:                                              ; preds = %164, %56, %47, %24
  call void @llvm.lifetime.end.p0(i64 8, ptr %13) #9
  call void @llvm.lifetime.end.p0(i64 4, ptr %12) #9
  call void @llvm.lifetime.end.p0(i64 4, ptr %11) #9
  call void @llvm.lifetime.end.p0(i64 4, ptr %10) #9
  call void @llvm.lifetime.end.p0(i64 4, ptr %9) #9
  call void @llvm.lifetime.end.p0(i64 4, ptr %8) #9
  %179 = load i32, ptr %4, align 4
  ret i32 %179
}