; Function Attrs: nounwind uwtable
define internal fastcc i32 @disable_noname_group_capture(ptr noundef nonnull captures(none) %0, ptr noundef %1, ptr noundef nonnull captures(none) %2) unnamed_addr #6 {
  %4 = alloca i32, align 4
  call void @llvm.lifetime.start.p0(i64 4, ptr nonnull %4) #22
  %5 = getelementptr inbounds nuw i8, ptr %2, i64 84
  %6 = load i32, ptr %5, align 4, !tbaa !106
  %7 = add nsw i32 %6, 1
  %8 = sext i32 %7 to i64
  %9 = shl nsw i64 %8, 2
  %10 = alloca i8, i64 %9, align 16
  %.not61 = icmp slt i32 %6, 1
  br i1 %.not61, label %._crit_edge, label %.lr.ph.preheader

.lr.ph.preheader:                                 ; preds = %3
  %scevgep = getelementptr nuw i8, ptr %10, i64 4
  %11 = zext nneg i32 %6 to i64
  %12 = shl nuw nsw i64 %11, 2
  call void @llvm.memset.p0.i64(ptr nonnull align 4 %scevgep, i8 0, i64 %12, i1 false), !tbaa !197
  br label %._crit_edge

._crit_edge:                                      ; preds = %.lr.ph.preheader, %3
  store i32 0, ptr %4, align 4, !tbaa !4
  %13 = call fastcc i32 @make_named_capture_number_map(ptr noundef nonnull %0, ptr noundef %10, ptr noundef %4)
  %14 = icmp slt i32 %13, 0
  br i1 %14, label %57, label %15

15:                                               ; preds = %._crit_edge
  %16 = load ptr, ptr %0, align 8, !tbaa !45
  %17 = call fastcc i32 @renumber_backref_traverse(ptr noundef %16, ptr noundef %10)
  %.not56 = icmp eq i32 %17, 0
  br i1 %.not56, label %.preheader, label %57

.preheader:                                       ; preds = %15
  %18 = load i32, ptr %5, align 4, !tbaa !106
  %.not5763 = icmp slt i32 %18, 1
  br i1 %.not5763, label %._crit_edge67, label %.lr.ph66

.lr.ph66:                                         ; preds = %.preheader
  %19 = getelementptr inbounds nuw i8, ptr %2, i64 224
  %20 = getelementptr inbounds nuw i8, ptr %2, i64 96
  br label %21

21:                                               ; preds = %.lr.ph66, %33
  %22 = phi i32 [ %18, %.lr.ph66 ], [ %34, %33 ]
  %indvars.iv = phi i64 [ 1, %.lr.ph66 ], [ %indvars.iv.next, %33 ]
  %.04865 = phi i32 [ 1, %.lr.ph66 ], [ %.1, %33 ]
  %23 = getelementptr inbounds nuw %struct.GroupNumMap, ptr %10, i64 %indvars.iv
  %24 = load i32, ptr %23, align 4, !tbaa !197
  %25 = icmp sgt i32 %24, 0
  br i1 %25, label %26, label %33

26:                                               ; preds = %21
  %27 = load ptr, ptr %19, align 8, !tbaa !89
  %.not59 = icmp eq ptr %27, null
  %28 = select i1 %.not59, ptr %20, ptr %27
  %29 = sext i32 %.04865 to i64
  %30 = getelementptr inbounds %struct.MemEnv, ptr %28, i64 %29
  %31 = getelementptr inbounds nuw %struct.MemEnv, ptr %28, i64 %indvars.iv
  call void @llvm.memcpy.p0.p0.i64(ptr noundef nonnull align 8 dereferenceable(16) %30, ptr noundef nonnull align 8 dereferenceable(16) %31, i64 16, i1 false), !tbaa.struct !199
  %32 = add nsw i32 %.04865, 1
  %.pre = load i32, ptr %5, align 4, !tbaa !106
  br label %33

33:                                               ; preds = %21, %26
  %34 = phi i32 [ %.pre, %26 ], [ %22, %21 ]
  %.1 = phi i32 [ %32, %26 ], [ %.04865, %21 ]
  %indvars.iv.next = add nuw nsw i64 %indvars.iv, 1
  %35 = sext i32 %34 to i64
  %.not57.not = icmp slt i64 %indvars.iv, %35
  br i1 %.not57.not, label %21, label %._crit_edge67, !llvm.loop !200

._crit_edge67:                                    ; preds = %33, %.preheader
  %36 = getelementptr inbounds nuw i8, ptr %2, i64 24
  %37 = load i32, ptr %36, align 8, !tbaa !35
  store i32 0, ptr %36, align 8, !tbaa !35
  br label %38

38:                                               ; preds = %._crit_edge67, %50
  %39 = phi i32 [ 0, %._crit_edge67 ], [ %51, %50 ]
  %indvars.iv71 = phi i64 [ 1, %._crit_edge67 ], [ %indvars.iv.next72, %50 ]
  %40 = trunc nuw nsw i64 %indvars.iv71 to i32
  %41 = shl nuw i32 1, %40
  %42 = and i32 %41, %37
  %.not58 = icmp eq i32 %42, 0
  br i1 %.not58, label %50, label %43

43:                                               ; preds = %38
  %44 = getelementptr inbounds nuw %struct.GroupNumMap, ptr %10, i64 %indvars.iv71
  %45 = load i32, ptr %44, align 4, !tbaa !197
  %46 = icmp slt i32 %45, 32
  br i1 %46, label %47, label %50

47:                                               ; preds = %43
  %48 = shl nuw i32 1, %45
  %49 = or i32 %39, %48
  store i32 %49, ptr %36, align 8, !tbaa !35
  br label %50

50:                                               ; preds = %38, %47, %43
  %51 = phi i32 [ %39, %38 ], [ %49, %47 ], [ %39, %43 ]
  %indvars.iv.next72 = add nuw nsw i64 %indvars.iv71, 1
  %exitcond.not = icmp eq i64 %indvars.iv.next72, 32
  br i1 %exitcond.not, label %52, label %38, !llvm.loop !201

52:                                               ; preds = %50
  %53 = getelementptr inbounds nuw i8, ptr %2, i64 88
  %54 = load i32, ptr %53, align 8, !tbaa !100
  store i32 %54, ptr %5, align 4, !tbaa !106
  %55 = getelementptr inbounds nuw i8, ptr %1, i64 48
  store i32 %54, ptr %55, align 8, !tbaa !202
  %56 = call i32 @onig_renumber_name_table(ptr noundef %1, ptr noundef nonnull %10) #22
  br label %57

57:                                               ; preds = %15, %._crit_edge, %52
  %.0 = phi i32 [ %56, %52 ], [ %13, %._crit_edge ], [ %17, %15 ]
  call void @llvm.lifetime.end.p0(i64 4, ptr nonnull %4) #22
  ret i32 %.0
}